; Function Attrs: mustprogress uwtable
define hidden void @_ZN2cv7Cloning17computeLaplacianYERKNS_3MatERS1_(ptr nocapture nonnull readnone align 8 %0, ptr noundef nonnull align 8 dereferenceable(96) %1, ptr noundef nonnull align 8 dereferenceable(96) %2) local_unnamed_addr #0 align 2 personality ptr @__gxx_personality_v0 {
  %4 = alloca %"class.cv::Mat", align 8
  %5 = alloca %"class.cv::MatExpr", align 8
  %6 = alloca %"class.cv::_InputArray", align 8
  %7 = alloca %"class.cv::_OutputArray", align 8
  %8 = alloca %"class.cv::_InputArray", align 8
  call void @_ZN2cv3Mat5zerosEiii(ptr dead_on_unwind nonnull writable sret(%"class.cv::MatExpr") align 8 %5, i32 noundef 3, i32 noundef 1, i32 noundef 1)
  call void @_ZN2cv3MatC1Ev(ptr noundef nonnull align 8 dereferenceable(96) %4) #14
  %9 = load ptr, ptr %5, align 8, !noalias !13
  %10 = load ptr, ptr %9, align 8
  %11 = getelementptr inbounds i8, ptr %10, i64 24
  %12 = load ptr, ptr %11, align 8
  invoke void %12(ptr noundef nonnull align 8 dereferenceable(8) %9, ptr noundef nonnull align 8 dereferenceable(352) %5, ptr noundef nonnull align 8 dereferenceable(96) %4, i32 noundef -1)
          to label %14 unwind label %.body

.body:                                            ; preds = %3
  %13 = landingpad { ptr, i32 }
          cleanup
  call void @_ZN2cv3MatD1Ev(ptr noundef nonnull align 8 dereferenceable(96) %4) #14
  call void @_ZN2cv7MatExprD2Ev(ptr noundef nonnull align 8 dereferenceable(352) %5) #14
  br label %36

14:                                               ; preds = %3
  %15 = getelementptr inbounds i8, ptr %5, i64 208
  call void @_ZN2cv3MatD1Ev(ptr noundef nonnull align 8 dereferenceable(96) %15) #14
  %16 = getelementptr inbounds i8, ptr %5, i64 112
  call void @_ZN2cv3MatD1Ev(ptr noundef nonnull align 8 dereferenceable(96) %16) #14
  %17 = getelementptr inbounds i8, ptr %5, i64 16
  call void @_ZN2cv3MatD1Ev(ptr noundef nonnull align 8 dereferenceable(96) %17) #14
  %18 = getelementptr inbounds i8, ptr %4, i64 16
  %19 = load ptr, ptr %18, align 8
  %20 = getelementptr inbounds i8, ptr %4, i64 72
  store i8 -1, ptr %19, align 1
  %21 = load ptr, ptr %18, align 8
  %22 = load ptr, ptr %20, align 8
  %23 = load i64, ptr %22, align 8
  %24 = getelementptr inbounds i8, ptr %21, i64 %23
  store i8 1, ptr %24, align 1
  %25 = getelementptr inbounds i8, ptr %6, i64 16
  store i32 0, ptr %25, align 8
  %26 = getelementptr inbounds i8, ptr %6, i64 20
  store i32 0, ptr %26, align 4
  store i32 16842752, ptr %6, align 8
  %27 = getelementptr inbounds i8, ptr %6, i64 8
  store ptr %1, ptr %27, align 8
  %28 = getelementptr inbounds i8, ptr %7, i64 8
  %29 = getelementptr inbounds i8, ptr %7, i64 16
  store i64 0, ptr %29, align 8
  store i32 33619968, ptr %7, align 8
  store ptr %2, ptr %28, align 8
  %30 = getelementptr inbounds i8, ptr %8, i64 16
  store i32 0, ptr %30, align 8
  %31 = getelementptr inbounds i8, ptr %8, i64 20
  store i32 0, ptr %31, align 4
  store i32 16842752, ptr %8, align 8
  %32 = getelementptr inbounds i8, ptr %8, i64 8
  store ptr %4, ptr %32, align 8
  invoke void @_ZN2cv8filter2DERKNS_11_InputArrayERKNS_12_OutputArrayEiS2_NS_6Point_IiEEdi(ptr noundef nonnull align 8 dereferenceable(24) %6, ptr noundef nonnull align 8 dereferenceable(24) %7, i32 noundef 5, ptr noundef nonnull align 8 dereferenceable(24) %8, i64 -1, double noundef 0.000000e+00, i32 noundef 4)
          to label %33 unwind label %34

33:                                               ; preds = %14
  call void @_ZN2cv3MatD1Ev(ptr noundef nonnull align 8 dereferenceable(96) %4) #14
  ret void

34:                                               ; preds = %14
  %35 = landingpad { ptr, i32 }
          cleanup
  call void @_ZN2cv3MatD1Ev(ptr noundef nonnull align 8 dereferenceable(96) %4) #14
  br label %36

36:                                               ; preds = %34, %.body
  %.pn.pn.pn.pn = phi { ptr, i32 } [ %35, %34 ], [ %13, %.body ]
  resume { ptr, i32 } %.pn.pn.pn.pn
}